ccopy_reg
_reconstructor
p1
(csklearn.linear_model.base
LinearRegression
p2
c__builtin__
object
p3
NtRp4
(dp5
S'normalize'
p6
I00
sS'n_jobs'
p7
I1
sS'rank_'
p8
I1
sS'fit_intercept'
p9
I01
sS'_residues'
p10
cnumpy.core.multiarray
scalar
p11
(cnumpy
dtype
p12
(S'f8'
I0
I1
tRp13
(I3
S'<'
NNNI-1
I-1
I0
tbS'JC\n\x01%\x032@'
tRp14
sS'coef_'
p15
cnumpy.core.multiarray
_reconstruct
p16
(cnumpy
ndarray
p17
(I0
tS'b'
tRp18
(I1
(L1L
tg13
I00
S"'\xc0\x05\x92y\x19\xd9?"
tbsS'copy_X'
p19
I01
sS'intercept_'
p20
g11
(g13
S'\x8c\x81\x1fh\xf0N\x07@'
tRp21
sS'singular_'
p22
g16
(g17
(I0
tS'b'
tRp23
(I1
(L1L
tg13
I00
S'\xc4\xd3\x1d\xae\xd8z2@'
tbsb.